target datalayout = "e-m:e-p270:32:32-p271:32:32-p272:64:64-i64:64-i128:128-f80:128-n8:16:32:64-S128"
target triple = "x86_64-pc-linux-gnu"

%struct.ckh_t = type { i64, i64, i32, i32, ptr, ptr, ptr }
%struct.ckhc_t = type { ptr, ptr }

; Function Attrs: nounwind uwtable
define zeroext i1 @duckdb_je_ckh_iter(ptr noundef %0, ptr noundef %1, ptr noundef %2, ptr noundef %3) #0 {
  %5 = alloca i1, align 1
  %6 = alloca ptr, align 8
  %7 = alloca ptr, align 8
  %8 = alloca ptr, align 8
  %9 = alloca ptr, align 8
  %10 = alloca i64, align 8
  %11 = alloca i64, align 8
  %12 = alloca i32, align 4
  store ptr %0, ptr %6, align 8, !tbaa !8
  store ptr %1, ptr %7, align 8, !tbaa !33
  store ptr %2, ptr %8, align 8, !tbaa !8
  store ptr %3, ptr %9, align 8, !tbaa !8
  call void @llvm.lifetime.start.p0(i64 8, ptr %10) #11
  call void @llvm.lifetime.start.p0(i64 8, ptr %11) #11
  %13 = load ptr, ptr %7, align 8, !tbaa !33
  %14 = load i64, ptr %13, align 8, !tbaa !9
  store i64 %14, ptr %10, align 8, !tbaa !9
  %15 = load ptr, ptr %6, align 8, !tbaa !8
  %16 = getelementptr inbounds nuw %struct.ckh_t, ptr %15, i32 0, i32 3
  %17 = load i32, ptr %16, align 4, !tbaa !17
  %18 = add i32 %17, 2
  %19 = zext i32 %18 to i64
  %20 = shl i64 1, %19
  store i64 %20, ptr %11, align 8, !tbaa !9
  br label %21

21:                                               ; preds = %63, %4
  %22 = load i64, ptr %10, align 8, !tbaa !9
  %23 = load i64, ptr %11, align 8, !tbaa !9
  %24 = icmp ult i64 %22, %23
  br i1 %24, label %25, label %66

25:                                               ; preds = %21
  %26 = load ptr, ptr %6, align 8, !tbaa !8
  %27 = getelementptr inbounds nuw %struct.ckh_t, ptr %26, i32 0, i32 6
  %28 = load ptr, ptr %27, align 8, !tbaa !22
  %29 = load i64, ptr %10, align 8, !tbaa !9
  %30 = getelementptr inbounds nuw %struct.ckhc_t, ptr %28, i64 %29
  %31 = getelementptr inbounds nuw %struct.ckhc_t, ptr %30, i32 0, i32 0
  %32 = load ptr, ptr %31, align 8, !tbaa !35
  %33 = icmp ne ptr %32, null
  br i1 %33, label %34, label %62

34:                                               ; preds = %25
  %35 = load ptr, ptr %8, align 8, !tbaa !8
  %36 = icmp ne ptr %35, null
  br i1 %36, label %37, label %46

37:                                               ; preds = %34
  %38 = load ptr, ptr %6, align 8, !tbaa !8
  %39 = getelementptr inbounds nuw %struct.ckh_t, ptr %38, i32 0, i32 6
  %40 = load ptr, ptr %39, align 8, !tbaa !22
  %41 = load i64, ptr %10, align 8, !tbaa !9
  %42 = getelementptr inbounds nuw %struct.ckhc_t, ptr %40, i64 %41
  %43 = getelementptr inbounds nuw %struct.ckhc_t, ptr %42, i32 0, i32 0
  %44 = load ptr, ptr %43, align 8, !tbaa !35
  %45 = load ptr, ptr %8, align 8, !tbaa !8
  store ptr %44, ptr %45, align 8, !tbaa !8
  br label %46

46:                                               ; preds = %37, %34
  %47 = load ptr, ptr %9, align 8, !tbaa !8
  %48 = icmp ne ptr %47, null
  br i1 %48, label %49, label %58

49:                                               ; preds = %46
  %50 = load ptr, ptr %6, align 8, !tbaa !8
  %51 = getelementptr inbounds nuw %struct.ckh_t, ptr %50, i32 0, i32 6
  %52 = load ptr, ptr %51, align 8, !tbaa !22
  %53 = load i64, ptr %10, align 8, !tbaa !9
  %54 = getelementptr inbounds nuw %struct.ckhc_t, ptr %52, i64 %53
  %55 = getelementptr inbounds nuw %struct.ckhc_t, ptr %54, i32 0, i32 1
  %56 = load ptr, ptr %55, align 8, !tbaa !37
  %57 = load ptr, ptr %9, align 8, !tbaa !8
  store ptr %56, ptr %57, align 8, !tbaa !8
  br label %58

58:                                               ; preds = %49, %46
  %59 = load i64, ptr %10, align 8, !tbaa !9
  %60 = add i64 %59, 1
  %61 = load ptr, ptr %7, align 8, !tbaa !33
  store i64 %60, ptr %61, align 8, !tbaa !9
  store i1 false, ptr %5, align 1
  store i32 1, ptr %12, align 4
  br label %67

62:                                               ; preds = %25
  br label %63

63:                                               ; preds = %62
  %64 = load i64, ptr %10, align 8, !tbaa !9
  %65 = add i64 %64, 1
  store i64 %65, ptr %10, align 8, !tbaa !9
  br label %21

66:                                               ; preds = %21
  store i1 true, ptr %5, align 1
  store i32 1, ptr %12, align 4
  br label %67

67:                                               ; preds = %66, %58
  call void @llvm.lifetime.end.p0(i64 8, ptr %11) #11
  call void @llvm.lifetime.end.p0(i64 8, ptr %10) #11
  %68 = load i1, ptr %5, align 1
  ret i1 %68
}