; Function Attrs: nofree norecurse nosync nounwind memory(read, argmem: readwrite, inaccessiblemem: none) uwtable
define noundef zeroext i1 @duckdb_je_ckh_iter(ptr noundef readonly captures(none) %0, ptr noundef captures(none) %1, ptr noundef writeonly captures(address_is_null) %2, ptr noundef writeonly captures(address_is_null) %3) local_unnamed_addr #3 {
  %5 = load i64, ptr %1, align 8, !tbaa !17
  %6 = getelementptr inbounds nuw i8, ptr %0, i64 20
  %7 = load i32, ptr %6, align 4, !tbaa !12
  %8 = add i32 %7, 2
  %9 = zext nneg i32 %8 to i64
  %.017.highbits27 = lshr i64 %5, %9
  %.not29 = icmp eq i64 %.017.highbits27, 0
  br i1 %.not29, label %.lr.ph, label %.loopexit

.lr.ph:                                           ; preds = %4
  %10 = getelementptr inbounds nuw i8, ptr %0, i64 40
  %11 = load ptr, ptr %10, align 8, !tbaa !51
  br label %12

12:                                               ; preds = %.lr.ph, %24
  %.01728 = phi i64 [ %5, %.lr.ph ], [ %25, %24 ]
  %13 = getelementptr inbounds nuw %struct.ckhc_t, ptr %11, i64 %.01728
  %14 = load ptr, ptr %13, align 8, !tbaa !61
  %.not = icmp eq ptr %14, null
  br i1 %.not, label %24, label %15

15:                                               ; preds = %12
  %.not21 = icmp eq ptr %2, null
  br i1 %.not21, label %17, label %16

16:                                               ; preds = %15
  store ptr %14, ptr %2, align 8, !tbaa !63
  br label %17

17:                                               ; preds = %16, %15
  %.not22 = icmp eq ptr %3, null
  br i1 %.not22, label %22, label %18

18:                                               ; preds = %17
  %19 = load ptr, ptr %10, align 8, !tbaa !51
  %20 = getelementptr inbounds nuw %struct.ckhc_t, ptr %19, i64 %.01728, i32 1
  %21 = load ptr, ptr %20, align 8, !tbaa !64
  store ptr %21, ptr %3, align 8, !tbaa !63
  br label %22

22:                                               ; preds = %18, %17
  %23 = add i64 %.01728, 1
  store i64 %23, ptr %1, align 8, !tbaa !17
  br label %.loopexit

24:                                               ; preds = %12
  %25 = add i64 %.01728, 1
  %.017.highbits = lshr i64 %25, %9
  %.not30 = icmp eq i64 %.017.highbits, 0
  br i1 %.not30, label %12, label %.loopexit

.loopexit:                                        ; preds = %24, %4, %22
  %26 = phi i1 [ false, %22 ], [ true, %4 ], [ true, %24 ]
  ret i1 %26
}